(lp0
F0.0
aF0.0
aF0.0
aF0.06199999999999761
aF0.06199999999999761
aF0.06199999999999761
aF0.0
aF0.06199999999999761
aF0.06199999999999761
aF0.06199999999999761
aF0.06199999999999761
aF0.06199999999999761
aF0.0
aF0.0
aF0.06199999999999761
aF0.06199999999999761
aF0.06199999999999761
aF0.06199999999999761
aF0.06199999999999761
aF0.06199999999999761
aF0.06199999999999761
aF0.06199999999999761
aF0.06199999999999761
aF0.06199999999999761
aF0.06199999999999761
aF0.06199999999999761
aF0.06199999999999761
aF0.06199999999999761
aF0.06199999999999761
aF0.06199999999999761
aF0.06199999999999761
aF0.06199999999999761
aF0.06199999999999761
aF0.06199999999999761
aF0.06199999999999761
aF0.06199999999999761
aF0.06199999999999761
aF0.06199999999999761
aF0.06199999999999761
aF0.06199999999999761
aF0.06199999999999761
aF0.06199999999999761
aF0.06199999999999761
aF0.06199999999999761
aF0.06199999999999761
aF0.06199999999999761
aF0.06199999999999761
aF0.06199999999999761
aF0.06199999999999761
aF0.06199999999999761
aF0.06199999999999761
aF0.06199999999999761
aF0.06199999999999761
aF0.06199999999999761
aF0.06199999999999761
aF0.06199999999999761
aF0.06199999999999761
aF0.06199999999999761
aF0.06199999999999761
aF0.06199999999999761
aF0.06199999999999761
aF0.06199999999999761
aF0.06199999999999761
aF0.06199999999999761
aF0.06199999999999761
aF0.06199999999999761
aF0.06199999999999761
aF0.06199999999999761
aF0.06199999999999761
aF0.06199999999999761
aF0.06199999999999761
aF0.06199999999999761
aF0.06199999999999761
aF0.06199999999999761
aF0.06199999999999761
aF0.06199999999999761
aF0.06199999999999761
aF0.06199999999999761
aF0.06199999999999761
aF0.06199999999999761
aF0.06199999999999761
aF0.06199999999999761
aF0.06199999999999761
aF0.06199999999999761
aF0.06199999999999761
aF0.06199999999999761
aF0.06199999999999761
aF0.06199999999999761
aF0.06199999999999761
aF0.06199999999999761
aF0.06199999999999761
aF0.06199999999999761
aF0.06199999999999761
aF0.06199999999999761
aF0.06199999999999761
aF0.06199999999999761
aF0.06199999999999761
aF0.06199999999999761
aF0.06199999999999761
aF0.06199999999999761
aF0.06199999999999761
aF0.06199999999999761
aF0.06199999999999761
aF0.06199999999999761
aF0.125
aF0.125
aF0.06199999999999761
aF0.06199999999999761
aF0.06199999999999761
aF0.06199999999999761
aF0.06199999999999761
aF0.06199999999999761
aF0.06199999999999761
aF0.06199999999999761
aF0.06199999999999761
aF0.06199999999999761
aF0.06199999999999761
aF0.06199999999999761
aF0.06199999999999761
aF0.06199999999999761
aF0.06199999999999761
aF0.06199999999999761
aF0.06199999999999761
aF0.06199999999999761
aF0.06199999999999761
aF0.125
aF0.125
aF0.125
aF0.06199999999999761
aF0.06199999999999761
aF0.125
aF0.125
aF0.125
aF0.06199999999999761
aF0.06199999999999761
aF0.06199999999999761
aF0.06199999999999761
aF0.06199999999999761
aF0.06199999999999761
aF0.06199999999999761
aF0.06199999999999761
aF0.125
aF0.125
aF0.06199999999999761
aF0.06199999999999761
aF0.06199999999999761
aF0.125
aF0.125
aF0.125
aF0.125
aF0.125
aF0.125
aF0.125
aF0.125
aF0.125
aF0.06199999999999761
aF0.125
aF0.125
aF0.125
aF0.125
aF0.125
aF0.125
aF0.125
aF0.125
aF0.125
aF0.125
aF0.125
aF0.125
aF0.125
aF0.125
aF0.125
aF0.125
aF0.125
aF0.125
aF0.125
aF0.125
aF0.125
aF0.125
aF0.125
aF0.125
aF0.125
aF0.125
aF0.125
aF0.125
aF0.125
aF0.125
aF0.125
aF0.125
aF0.125
aF0.125
aF0.125
aF0.125
aF0.125
aF0.125
aF0.125
aF0.125
aF0.125
aF0.125
aF0.125
aF0.125
aF0.125
aF0.125
aF0.125
aF0.125
aF0.125
aF0.125
aF0.125
aF0.125
aF0.125
aF0.125
aF0.125
aF0.125
aF0.125
aF0.125
aF0.125
aF0.125
aF0.125
aF0.125
aF0.125
aF0.125
aF0.125
aF0.125
aF0.125
aF0.125
aF0.125
aF0.125
aF0.125
aF0.125
aF0.125
aF0.125
aF0.125
aF0.125
aF0.125
aF0.125
aF0.125
aF0.125
aF0.125
aF0.125
aF0.125
aF0.125
aF0.125
aF0.125
aF0.125
aF0.125
aF0.125
aF0.125
aF0.125
aF0.125
aF0.125
aF0.125
aF0.125
aF0.125
aF0.125
aF0.125
aF0.125
aF0.125
aF0.125
aF0.125
aF0.125
aF0.125
aF0.125
aF0.125
aF0.125
aF0.125
aF0.1869999999999976
aF0.1869999999999976
aF0.125
aF0.125
aF0.125
aF0.125
aF0.125
aF0.125
aF0.125
aF0.125
aF0.125
aF0.125
aF0.125
aF0.125
aF0.125
aF0.125
aF0.125
aF0.1869999999999976
aF0.125
aF0.125
aF0.1869999999999976
aF0.1869999999999976
aF0.1869999999999976
aF0.1869999999999976
aF0.1869999999999976
aF0.125
aF0.1869999999999976
aF0.1869999999999976
aF0.1869999999999976
aF0.1869999999999976
aF0.1869999999999976
aF0.1869999999999976
aF0.1869999999999976
aF0.125
aF0.125
aF0.125
aF0.1869999999999976
aF0.1869999999999976
aF0.1869999999999976
aF0.1869999999999976
aF0.1869999999999976
aF0.1869999999999976
aF0.1869999999999976
aF0.125
aF0.125
aF0.125
aF0.125
aF0.125
aF0.1869999999999976
aF0.1869999999999976
aF0.1869999999999976
aF0.1869999999999976
aF0.1869999999999976
aF0.1869999999999976
aF0.1869999999999976
aF0.1869999999999976
aF0.125
aF0.1869999999999976
aF0.1869999999999976
aF0.1869999999999976
aF0.1869999999999976
aF0.125
aF0.1869999999999976
aF0.1869999999999976
aF0.1869999999999976
aF0.1869999999999976
aF0.1869999999999976
aF0.125
aF0.125
aF0.125
aF0.1869999999999976
aF0.1869999999999976
aF0.1869999999999976
aF0.1869999999999976
aF0.125
aF0.125
aF0.125
aF0.1869999999999976
aF0.1869999999999976
aF0.125
aF0.1869999999999976
aF0.1869999999999976
aF0.1869999999999976
aF0.1869999999999976
aF0.1869999999999976
aF0.125
aF0.125
aF0.1869999999999976
aF0.1869999999999976
aF0.1869999999999976
aF0.1869999999999976
aF0.1869999999999976
aF0.125
aF0.1869999999999976
aF0.1869999999999976
aF0.1869999999999976
a.